; Function Attrs: mustprogress uwtable
define void @_ZN5Ipopt11DenseVector8CopyImplERKNS_6VectorE(ptr nocapture noundef nonnull align 8 dereferenceable(248) %0, ptr nocapture noundef nonnull readonly align 8 dereferenceable(205) %1) unnamed_addr #0 align 2 {
  %3 = getelementptr inbounds i8, ptr %1, i64 233
  %4 = load i8, ptr %3, align 1
  %5 = and i8 %4, 1
  %.not = icmp eq i8 %5, 0
  %6 = getelementptr inbounds i8, ptr %0, i64 233
  store i8 %5, ptr %6, align 1
  br i1 %.not, label %11, label %7

7:                                                ; preds = %2
  %8 = getelementptr inbounds i8, ptr %1, i64 240
  %9 = load double, ptr %8, align 8
  %10 = getelementptr inbounds i8, ptr %0, i64 240
  store double %9, ptr %10, align 8
  br label %32

11:                                               ; preds = %2
  %12 = getelementptr inbounds i8, ptr %0, i64 56
  %13 = load ptr, ptr %12, align 8
  %14 = getelementptr inbounds i8, ptr %13, i64 12
  %15 = load i32, ptr %14, align 4
  %16 = getelementptr inbounds i8, ptr %1, i64 216
  %17 = load ptr, ptr %16, align 8
  %18 = getelementptr inbounds i8, ptr %0, i64 216
  %19 = load ptr, ptr %18, align 8
  %20 = icmp eq ptr %19, null
  br i1 %20, label %21, label %_ZN5Ipopt11DenseVector16values_allocatedEv.exit

21:                                               ; preds = %11
  %22 = getelementptr inbounds i8, ptr %0, i64 208
  %23 = load ptr, ptr %22, align 8
  %24 = getelementptr inbounds i8, ptr %23, i64 12
  %25 = load i32, ptr %24, align 4
  %26 = icmp sgt i32 %25, 0
  br i1 %26, label %27, label %_ZNK5Ipopt16DenseVectorSpace23AllocateInternalStorageEv.exit.i

27:                                               ; preds = %21
  %28 = zext nneg i32 %25 to i64
  %29 = shl nuw nsw i64 %28, 3
  %30 = tail call noalias noundef nonnull ptr @_Znam(i64 noundef %29) #18
  br label %_ZNK5Ipopt16DenseVectorSpace23AllocateInternalStorageEv.exit.i

_ZNK5Ipopt16DenseVectorSpace23AllocateInternalStorageEv.exit.i: ; preds = %27, %21
  %.0.i.i = phi ptr [ %30, %27 ], [ null, %21 ]
  store ptr %.0.i.i, ptr %18, align 8
  br label %_ZN5Ipopt11DenseVector16values_allocatedEv.exit

_ZN5Ipopt11DenseVector16values_allocatedEv.exit:  ; preds = %11, %_ZNK5Ipopt16DenseVectorSpace23AllocateInternalStorageEv.exit.i
  %31 = phi ptr [ %.0.i.i, %_ZNK5Ipopt16DenseVectorSpace23AllocateInternalStorageEv.exit.i ], [ %19, %11 ]
  tail call void @_ZN5Ipopt10IpBlasCopyEiPKdiPdi(i32 noundef %15, ptr noundef %17, i32 noundef 1, ptr noundef %31, i32 noundef 1)
  br label %32

32:                                               ; preds = %_ZN5Ipopt11DenseVector16values_allocatedEv.exit, %7
  %33 = getelementptr inbounds i8, ptr %0, i64 232
  store i8 1, ptr %33, align 8
  ret void
}